target datalayout = "e-m:e-p270:32:32-p271:32:32-p272:64:64-i64:64-i128:128-f80:128-n8:16:32:64-S128"
target triple = "x86_64-pc-linux-gnu"

@stderr = external global ptr, align 8
@.str.6 = private unnamed_addr constant [4 x i8] c"%s\0A\00", align 1
@infile = internal global ptr null, align 8
@.str.32 = private unnamed_addr constant [27 x i8] c"Premature EOF in JPEG file\00", align 1

; Function Attrs: nounwind uwtable
define internal i32 @read_2_bytes() #0 {
  %1 = alloca i32, align 4
  %2 = alloca i32, align 4
  call void @llvm.lifetime.start.p0(i64 4, ptr %1) #10
  call void @llvm.lifetime.start.p0(i64 4, ptr %2) #10
  %3 = load ptr, ptr @infile, align 8, !tbaa !13
  %4 = call i32 @getc(ptr noundef %3)
  store i32 %4, ptr %1, align 4, !tbaa !4
  %5 = load i32, ptr %1, align 4, !tbaa !4
  %6 = icmp eq i32 %5, -1
  br i1 %6, label %7, label %10

7:                                                ; preds = %0
  %8 = load ptr, ptr @stderr, align 8, !tbaa !13
  %9 = call i32 (ptr, ptr, ...) @fprintf(ptr noundef %8, ptr noundef @.str.6, ptr noundef @.str.32) #10
  call void @exit(i32 noundef 1) #11
  unreachable

10:                                               ; preds = %0
  %11 = load ptr, ptr @infile, align 8, !tbaa !13
  %12 = call i32 @getc(ptr noundef %11)
  store i32 %12, ptr %2, align 4, !tbaa !4
  %13 = load i32, ptr %2, align 4, !tbaa !4
  %14 = icmp eq i32 %13, -1
  br i1 %14, label %15, label %18

15:                                               ; preds = %10
  %16 = load ptr, ptr @stderr, align 8, !tbaa !13
  %17 = call i32 (ptr, ptr, ...) @fprintf(ptr noundef %16, ptr noundef @.str.6, ptr noundef @.str.32) #10
  call void @exit(i32 noundef 1) #11
  unreachable

18:                                               ; preds = %10
  %19 = load i32, ptr %1, align 4, !tbaa !4
  %20 = shl i32 %19, 8
  %21 = load i32, ptr %2, align 4, !tbaa !4
  %22 = add i32 %20, %21
  call void @llvm.lifetime.end.p0(i64 4, ptr %2) #10
  call void @llvm.lifetime.end.p0(i64 4, ptr %1) #10
  ret i32 %22
}